; ModuleID = '8/895.cpp'
source_filename = "8/895.cpp"
target datalayout = "e-m:e-p270:32:32-p271:32:32-p272:64:64-i64:64-f80:128-n8:16:32:64-S128"
target triple = "x86_64-pc-linux-gnu"

%"class.std::ios_base::Init" = type { i8 }
%"class.std::basic_ostream" = type { i32 (...)**, %"class.std::basic_ios" }
%"class.std::basic_ios" = type { %"class.std::ios_base", %"class.std::basic_ostream"*, i8, i8, %"class.std::basic_streambuf"*, %"class.std::ctype"*, %"class.std::num_put"*, %"class.std::num_get"* }
%"class.std::ios_base" = type { i32 (...)**, i64, i64, i32, i32, i32, %"struct.std::ios_base::_Callback_list"*, %"struct.std::ios_base::_Words", [8 x %"struct.std::ios_base::_Words"], i32, %"struct.std::ios_base::_Words"*, %"class.std::locale" }
%"struct.std::ios_base::_Callback_list" = type { %"struct.std::ios_base::_Callback_list"*, void (i32, %"class.std::ios_base"*, i32)*, i32, i32 }
%"struct.std::ios_base::_Words" = type { i8*, i64 }
%"class.std::locale" = type { %"class.std::locale::_Impl"* }
%"class.std::locale::_Impl" = type { i32, %"class.std::locale::facet"**, i64, %"class.std::locale::facet"**, i8** }
%"class.std::locale::facet" = type <{ i32 (...)**, i32, [4 x i8] }>
%"class.std::basic_streambuf" = type { i32 (...)**, i8*, i8*, i8*, i8*, i8*, i8*, %"class.std::locale" }
%"class.std::ctype" = type <{ %"class.std::locale::facet.base", [4 x i8], %struct.__locale_struct*, i8, [7 x i8], i32*, i32*, i16*, i8, [256 x i8], [256 x i8], i8, [6 x i8] }>
%"class.std::locale::facet.base" = type <{ i32 (...)**, i32 }>
%struct.__locale_struct = type { [13 x %struct.__locale_data*], i16*, i32*, i32*, [13 x i8*] }
%struct.__locale_data = type opaque
%"class.std::num_put" = type { %"class.std::locale::facet.base", [4 x i8] }
%"class.std::num_get" = type { %"class.std::locale::facet.base", [4 x i8] }
%"class.std::basic_istream" = type { i32 (...)**, i64, %"class.std::basic_ios" }

@_ZStL8__ioinit = internal global %"class.std::ios_base::Init" zeroinitializer, align 1
@__dso_handle = external hidden global i8
@i = dso_local global i32 0, align 4
@m = dso_local global i32 0, align 4
@n = dso_local global i32 0, align 4
@a = dso_local global [1000 x i32] zeroinitializer, align 16
@b = dso_local global [1000 x i32] zeroinitializer, align 16
@c = dso_local global i32 0, align 4
@_ZSt4cout = external dso_local global %"class.std::basic_ostream", align 8
@.str = private unnamed_addr constant [2 x i8] c" \00", align 1
@_ZSt3cin = external dso_local global %"class.std::basic_istream", align 8
@llvm.global_ctors = appending global [1 x { i32, void ()*, i8* }] [{ i32, void ()*, i8* } { i32 65535, void ()* @_GLOBAL__sub_I_895.cpp, i8* null }]

; Function Attrs: noinline uwtable
define internal void @__cxx_global_var_init() #0 section ".text.startup" {
  call void @_ZNSt8ios_base4InitC1Ev(%"class.std::ios_base::Init"* @_ZStL8__ioinit)
  %1 = call i32 @__cxa_atexit(void (i8*)* bitcast (void (%"class.std::ios_base::Init"*)* @_ZNSt8ios_base4InitD1Ev to void (i8*)*), i8* getelementptr inbounds (%"class.std::ios_base::Init", %"class.std::ios_base::Init"* @_ZStL8__ioinit, i32 0, i32 0), i8* @__dso_handle) #3
  ret void
}

declare dso_local void @_ZNSt8ios_base4InitC1Ev(%"class.std::ios_base::Init"*) unnamed_addr #1

; Function Attrs: nounwind
declare dso_local void @_ZNSt8ios_base4InitD1Ev(%"class.std::ios_base::Init"*) unnamed_addr #2

; Function Attrs: nounwind
declare dso_local i32 @__cxa_atexit(void (i8*)*, i8*, i8*) #3

; Function Attrs: noinline uwtable
define dso_local void @_Z1fPii(i32* %0, i32 %1) #0 {
  %3 = alloca i32*, align 8
  %4 = alloca i32, align 4
  %5 = alloca i32, align 4
  store i32* %0, i32** %3, align 8
  store i32 %1, i32* %4, align 4
  store i32 0, i32* @i, align 4
  br label %6

6:                                                ; preds = %59, %2
  %7 = load i32, i32* @i, align 4
  %8 = load i32, i32* %4, align 4
  %9 = sub nsw i32 %8, 1
  %10 = icmp slt i32 %7, %9
  br i1 %10, label %11, label %62

11:                                               ; preds = %6
  store i32 0, i32* %5, align 4
  br label %12

12:                                               ; preds = %55, %11
  %13 = load i32, i32* %5, align 4
  %14 = load i32, i32* %4, align 4
  %15 = sub nsw i32 %14, 1
  %16 = load i32, i32* @i, align 4
  %17 = sub nsw i32 %15, %16
  %18 = icmp slt i32 %13, %17
  br i1 %18, label %19, label %58

19:                                               ; preds = %12
  %20 = load i32*, i32** %3, align 8
  %21 = load i32, i32* %5, align 4
  %22 = sext i32 %21 to i64
  %23 = getelementptr inbounds i32, i32* %20, i64 %22
  %24 = load i32, i32* %23, align 4
  %25 = load i32*, i32** %3, align 8
  %26 = load i32, i32* %5, align 4
  %27 = add nsw i32 %26, 1
  %28 = sext i32 %27 to i64
  %29 = getelementptr inbounds i32, i32* %25, i64 %28
  %30 = load i32, i32* %29, align 4
  %31 = icmp sgt i32 %24, %30
  br i1 %31, label %32, label %54

32:                                               ; preds = %19
  %33 = load i32*, i32** %3, align 8
  %34 = load i32, i32* %5, align 4
  %35 = sext i32 %34 to i64
  %36 = getelementptr inbounds i32, i32* %33, i64 %35
  %37 = load i32, i32* %36, align 4
  store i32 %37, i32* @c, align 4
  %38 = load i32*, i32** %3, align 8
  %39 = load i32, i32* %5, align 4
  %40 = add nsw i32 %39, 1
  %41 = sext i32 %40 to i64
  %42 = getelementptr inbounds i32, i32* %38, i64 %41
  %43 = load i32, i32* %42, align 4
  %44 = load i32*, i32** %3, align 8
  %45 = load i32, i32* %5, align 4
  %46 = sext i32 %45 to i64
  %47 = getelementptr inbounds i32, i32* %44, i64 %46
  store i32 %43, i32* %47, align 4
  %48 = load i32, i32* @c, align 4
  %49 = load i32*, i32** %3, align 8
  %50 = load i32, i32* %5, align 4
  %51 = add nsw i32 %50, 1
  %52 = sext i32 %51 to i64
  %53 = getelementptr inbounds i32, i32* %49, i64 %52
  store i32 %48, i32* %53, align 4
  br label %54

54:                                               ; preds = %32, %19
  br label %55

55:                                               ; preds = %54
  %56 = load i32, i32* %5, align 4
  %57 = add nsw i32 %56, 1
  store i32 %57, i32* %5, align 4
  br label %12

58:                                               ; preds = %12
  br label %59

59:                                               ; preds = %58
  %60 = load i32, i32* @i, align 4
  %61 = add nsw i32 %60, 1
  store i32 %61, i32* @i, align 4
  br label %6

62:                                               ; preds = %6
  %63 = load i32*, i32** %3, align 8
  %64 = getelementptr inbounds i32, i32* %63, i64 0
  %65 = load i32, i32* %64, align 4
  %66 = call dereferenceable(272) %"class.std::basic_ostream"* @_ZNSolsEi(%"class.std::basic_ostream"* @_ZSt4cout, i32 %65)
  store i32 1, i32* @i, align 4
  br label %67

67:                                               ; preds = %79, %62
  %68 = load i32, i32* @i, align 4
  %69 = load i32, i32* %4, align 4
  %70 = icmp slt i32 %68, %69
  br i1 %70, label %71, label %82

71:                                               ; preds = %67
  %72 = call dereferenceable(272) %"class.std::basic_ostream"* @_ZStlsISt11char_traitsIcEERSt13basic_ostreamIcT_ES5_PKc(%"class.std::basic_ostream"* dereferenceable(272) @_ZSt4cout, i8* getelementptr inbounds ([2 x i8], [2 x i8]* @.str, i64 0, i64 0))
  %73 = load i32*, i32** %3, align 8
  %74 = load i32, i32* @i, align 4
  %75 = sext i32 %74 to i64
  %76 = getelementptr inbounds i32, i32* %73, i64 %75
  %77 = load i32, i32* %76, align 4
  %78 = call dereferenceable(272) %"class.std::basic_ostream"* @_ZNSolsEi(%"class.std::basic_ostream"* %72, i32 %77)
  br label %79

79:                                               ; preds = %71
  %80 = load i32, i32* @i, align 4
  %81 = add nsw i32 %80, 1
  store i32 %81, i32* @i, align 4
  br label %67

82:                                               ; preds = %67
  ret void
}

declare dso_local dereferenceable(272) %"class.std::basic_ostream"* @_ZNSolsEi(%"class.std::basic_ostream"*, i32) #1

declare dso_local dereferenceable(272) %"class.std::basic_ostream"* @_ZStlsISt11char_traitsIcEERSt13basic_ostreamIcT_ES5_PKc(%"class.std::basic_ostream"* dereferenceable(272), i8*) #1

; Function Attrs: noinline norecurse uwtable
define dso_local i32 @main() #4 {
  %1 = alloca i32, align 4
  store i32 0, i32* %1, align 4
  %2 = call dereferenceable(280) %"class.std::basic_istream"* @_ZNSirsERi(%"class.std::basic_istream"* @_ZSt3cin, i32* dereferenceable(4) @m)
  %3 = call dereferenceable(280) %"class.std::basic_istream"* @_ZNSirsERi(%"class.std::basic_istream"* %2, i32* dereferenceable(4) @n)
  store i32 0, i32* @i, align 4
  br label %4

4:                                                ; preds = %13, %0
  %5 = load i32, i32* @i, align 4
  %6 = load i32, i32* @m, align 4
  %7 = icmp slt i32 %5, %6
  br i1 %7, label %8, label %16

8:                                                ; preds = %4
  %9 = load i32, i32* @i, align 4
  %10 = sext i32 %9 to i64
  %11 = getelementptr inbounds [1000 x i32], [1000 x i32]* @a, i64 0, i64 %10
  %12 = call dereferenceable(280) %"class.std::basic_istream"* @_ZNSirsERi(%"class.std::basic_istream"* @_ZSt3cin, i32* dereferenceable(4) %11)
  br label %13

13:                                               ; preds = %8
  %14 = load i32, i32* @i, align 4
  %15 = add nsw i32 %14, 1
  store i32 %15, i32* @i, align 4
  br label %4

16:                                               ; preds = %4
  %17 = load i32, i32* @m, align 4
  call void @_Z1fPii(i32* getelementptr inbounds ([1000 x i32], [1000 x i32]* @a, i64 0, i64 0), i32 %17)
  store i32 0, i32* @i, align 4
  br label %18

18:                                               ; preds = %27, %16
  %19 = load i32, i32* @i, align 4
  %20 = load i32, i32* @n, align 4
  %21 = icmp slt i32 %19, %20
  br i1 %21, label %22, label %30

22:                                               ; preds = %18
  %23 = load i32, i32* @i, align 4
  %24 = sext i32 %23 to i64
  %25 = getelementptr inbounds [1000 x i32], [1000 x i32]* @b, i64 0, i64 %24
  %26 = call dereferenceable(280) %"class.std::basic_istream"* @_ZNSirsERi(%"class.std::basic_istream"* @_ZSt3cin, i32* dereferenceable(4) %25)
  br label %27

27:                                               ; preds = %22
  %28 = load i32, i32* @i, align 4
  %29 = add nsw i32 %28, 1
  store i32 %29, i32* @i, align 4
  br label %18

30:                                               ; preds = %18
  %31 = call dereferenceable(272) %"class.std::basic_ostream"* @_ZStlsISt11char_traitsIcEERSt13basic_ostreamIcT_ES5_PKc(%"class.std::basic_ostream"* dereferenceable(272) @_ZSt4cout, i8* getelementptr inbounds ([2 x i8], [2 x i8]* @.str, i64 0, i64 0))
  %32 = load i32, i32* @n, align 4
  call void @_Z1fPii(i32* getelementptr inbounds ([1000 x i32], [1000 x i32]* @b, i64 0, i64 0), i32 %32)
  ret i32 0
}

declare dso_local dereferenceable(280) %"class.std::basic_istream"* @_ZNSirsERi(%"class.std::basic_istream"*, i32* dereferenceable(4)) #1

; Function Attrs: noinline uwtable
define internal void @_GLOBAL__sub_I_895.cpp() #0 section ".text.startup" {
  call void @__cxx_global_var_init()
  ret void
}


!llvm.module.flags = !{!0}
!llvm.ident = !{!1}

!0 = !{i32 1, !"wchar_size", i32 4}
!1 = !{!"clang version 10.0.0-4ubuntu1 "}
