; ModuleID = 'source-C-CXX/7/895.cpp'
source_filename = "source-C-CXX/7/895.cpp"
target datalayout = "e-m:e-p270:32:32-p271:32:32-p272:64:64-i64:64-f80:128-n8:16:32:64-S128"
target triple = "x86_64-pc-linux-gnu"

%"class.std::ios_base::Init" = type { i8 }
%"class.std::basic_ostream" = type { i32 (...)**, %"class.std::basic_ios" }
%"class.std::basic_ios" = type { %"class.std::ios_base", %"class.std::basic_ostream"*, i8, i8, %"class.std::basic_streambuf"*, %"class.std::ctype"*, %"class.std::num_put"*, %"class.std::num_get"* }
%"class.std::ios_base" = type { i32 (...)**, i64, i64, i32, i32, i32, %"struct.std::ios_base::_Callback_list"*, %"struct.std::ios_base::_Words", [8 x %"struct.std::ios_base::_Words"], i32, %"struct.std::ios_base::_Words"*, %"class.std::locale" }
%"struct.std::ios_base::_Callback_list" = type { %"struct.std::ios_base::_Callback_list"*, void (i32, %"class.std::ios_base"*, i32)*, i32, i32 }
%"struct.std::ios_base::_Words" = type { i8*, i64 }
%"class.std::locale" = type { %"class.std::locale::_Impl"* }
%"class.std::locale::_Impl" = type { i32, %"class.std::locale::facet"**, i64, %"class.std::locale::facet"**, i8** }
%"class.std::locale::facet" = type <{ i32 (...)**, i32, [4 x i8] }>
%"class.std::basic_streambuf" = type { i32 (...)**, i8*, i8*, i8*, i8*, i8*, i8*, %"class.std::locale" }
%"class.std::ctype" = type <{ %"class.std::locale::facet.base", [4 x i8], %struct.__locale_struct*, i8, [7 x i8], i32*, i32*, i16*, i8, [256 x i8], [256 x i8], i8, [6 x i8] }>
%"class.std::locale::facet.base" = type <{ i32 (...)**, i32 }>
%struct.__locale_struct = type { [13 x %struct.__locale_data*], i16*, i32*, i32*, [13 x i8*] }
%struct.__locale_data = type opaque
%"class.std::num_put" = type { %"class.std::locale::facet.base", [4 x i8] }
%"class.std::num_get" = type { %"class.std::locale::facet.base", [4 x i8] }
%"class.std::basic_istream" = type { i32 (...)**, i64, %"class.std::basic_ios" }

@_ZStL8__ioinit = internal global %"class.std::ios_base::Init" zeroinitializer, align 1
@__dso_handle = external hidden global i8
@i = dso_local local_unnamed_addr global i32 0, align 4
@m = dso_local global i32 0, align 4
@n = dso_local global i32 0, align 4
@a = dso_local global [1000 x i32] zeroinitializer, align 16
@b = dso_local global [1000 x i32] zeroinitializer, align 16
@c = dso_local local_unnamed_addr global i32 0, align 4
@_ZSt4cout = external global %"class.std::basic_ostream", align 8
@.str = private unnamed_addr constant [2 x i8] c" \00", align 1
@_ZSt3cin = external global %"class.std::basic_istream", align 8
@llvm.global_ctors = appending global [1 x { i32, void ()*, i8* }] [{ i32, void ()*, i8* } { i32 65535, void ()* @_GLOBAL__sub_I_895.cpp, i8* null }]

declare void @_ZNSt8ios_base4InitC1Ev(%"class.std::ios_base::Init"* nonnull align 1 dereferenceable(1)) unnamed_addr #0

; Function Attrs: nounwind
declare void @_ZNSt8ios_base4InitD1Ev(%"class.std::ios_base::Init"* nonnull align 1 dereferenceable(1)) unnamed_addr #1

; Function Attrs: nofree nounwind
declare i32 @__cxa_atexit(void (i8*)*, i8*, i8*) local_unnamed_addr #2

; Function Attrs: mustprogress sspstrong uwtable
define dso_local void @_Z1fPii(i32* nocapture %0, i32 %1) local_unnamed_addr #3 {
  %3 = add nsw i32 %1, -1
  store i32 0, i32* @i, align 4, !tbaa !5
  %4 = icmp sgt i32 %1, 1
  br i1 %4, label %8, label %5

5:                                                ; preds = %2
  %6 = load i32, i32* %0, align 4, !tbaa !5
  %7 = tail call nonnull align 8 dereferenceable(8) %"class.std::basic_ostream"* @_ZNSolsEi(%"class.std::basic_ostream"* nonnull align 8 dereferenceable(8) @_ZSt4cout, i32 %6)
  store i32 1, i32* @i, align 4, !tbaa !5
  br label %49

8:                                                ; preds = %2, %13
  %9 = phi i32 [ %15, %13 ], [ 0, %2 ]
  %10 = icmp sgt i32 %3, %9
  br i1 %10, label %11, label %13

11:                                               ; preds = %8
  %12 = load i32, i32* %0, align 4, !tbaa !5
  br label %17

13:                                               ; preds = %30, %8
  %14 = phi i32 [ %9, %8 ], [ %31, %30 ]
  %15 = add nsw i32 %14, 1
  store i32 %15, i32* @i, align 4, !tbaa !5
  %16 = icmp slt i32 %15, %3
  br i1 %16, label %8, label %36, !llvm.loop !9

17:                                               ; preds = %11, %30
  %18 = phi i32 [ %9, %11 ], [ %31, %30 ]
  %19 = phi i32 [ %12, %11 ], [ %32, %30 ]
  %20 = phi i64 [ 0, %11 ], [ %21, %30 ]
  %21 = add nuw nsw i64 %20, 1
  %22 = getelementptr inbounds i32, i32* %0, i64 %21
  %23 = load i32, i32* %22, align 4, !tbaa !5
  %24 = icmp sgt i32 %19, %23
  br i1 %24, label %25, label %30

25:                                               ; preds = %17
  %26 = getelementptr inbounds i32, i32* %0, i64 %20
  store i32 %19, i32* @c, align 4, !tbaa !5
  %27 = load i32, i32* %22, align 4, !tbaa !5
  store i32 %27, i32* %26, align 4, !tbaa !5
  %28 = load i32, i32* @c, align 4, !tbaa !5
  store i32 %28, i32* %22, align 4, !tbaa !5
  %29 = load i32, i32* @i, align 4, !tbaa !5
  br label %30

30:                                               ; preds = %17, %25
  %31 = phi i32 [ %18, %17 ], [ %29, %25 ]
  %32 = phi i32 [ %23, %17 ], [ %28, %25 ]
  %33 = sub nsw i32 %3, %31
  %34 = sext i32 %33 to i64
  %35 = icmp slt i64 %21, %34
  br i1 %35, label %17, label %13, !llvm.loop !11

36:                                               ; preds = %13
  %37 = load i32, i32* %0, align 4, !tbaa !5
  %38 = tail call nonnull align 8 dereferenceable(8) %"class.std::basic_ostream"* @_ZNSolsEi(%"class.std::basic_ostream"* nonnull align 8 dereferenceable(8) @_ZSt4cout, i32 %37)
  store i32 1, i32* @i, align 4, !tbaa !5
  br i1 %4, label %39, label %49

39:                                               ; preds = %36, %39
  %40 = tail call nonnull align 8 dereferenceable(8) %"class.std::basic_ostream"* @_ZSt16__ostream_insertIcSt11char_traitsIcEERSt13basic_ostreamIT_T0_ES6_PKS3_l(%"class.std::basic_ostream"* nonnull align 8 dereferenceable(8) @_ZSt4cout, i8* nonnull getelementptr inbounds ([2 x i8], [2 x i8]* @.str, i64 0, i64 0), i64 1)
  %41 = load i32, i32* @i, align 4, !tbaa !5
  %42 = sext i32 %41 to i64
  %43 = getelementptr inbounds i32, i32* %0, i64 %42
  %44 = load i32, i32* %43, align 4, !tbaa !5
  %45 = tail call nonnull align 8 dereferenceable(8) %"class.std::basic_ostream"* @_ZNSolsEi(%"class.std::basic_ostream"* nonnull align 8 dereferenceable(8) @_ZSt4cout, i32 %44)
  %46 = load i32, i32* @i, align 4, !tbaa !5
  %47 = add nsw i32 %46, 1
  store i32 %47, i32* @i, align 4, !tbaa !5
  %48 = icmp slt i32 %47, %1
  br i1 %48, label %39, label %49, !llvm.loop !12

49:                                               ; preds = %39, %5, %36
  ret void
}

declare nonnull align 8 dereferenceable(8) %"class.std::basic_ostream"* @_ZNSolsEi(%"class.std::basic_ostream"* nonnull align 8 dereferenceable(8), i32) local_unnamed_addr #0

; Function Attrs: mustprogress norecurse sspstrong uwtable
define dso_local i32 @main() local_unnamed_addr #4 {
  %1 = tail call nonnull align 8 dereferenceable(16) %"class.std::basic_istream"* @_ZNSirsERi(%"class.std::basic_istream"* nonnull align 8 dereferenceable(16) @_ZSt3cin, i32* nonnull align 4 dereferenceable(4) @m)
  %2 = tail call nonnull align 8 dereferenceable(16) %"class.std::basic_istream"* @_ZNSirsERi(%"class.std::basic_istream"* nonnull align 8 dereferenceable(16) %1, i32* nonnull align 4 dereferenceable(4) @n)
  store i32 0, i32* @i, align 4, !tbaa !5
  %3 = load i32, i32* @m, align 4, !tbaa !5
  %4 = icmp sgt i32 %3, 0
  br i1 %4, label %5, label %14

5:                                                ; preds = %0, %5
  %6 = phi i32 [ %11, %5 ], [ 0, %0 ]
  %7 = sext i32 %6 to i64
  %8 = getelementptr inbounds [1000 x i32], [1000 x i32]* @a, i64 0, i64 %7
  %9 = tail call nonnull align 8 dereferenceable(16) %"class.std::basic_istream"* @_ZNSirsERi(%"class.std::basic_istream"* nonnull align 8 dereferenceable(16) @_ZSt3cin, i32* nonnull align 4 dereferenceable(4) %8)
  %10 = load i32, i32* @i, align 4, !tbaa !5
  %11 = add nsw i32 %10, 1
  store i32 %11, i32* @i, align 4, !tbaa !5
  %12 = load i32, i32* @m, align 4, !tbaa !5
  %13 = icmp slt i32 %11, %12
  br i1 %13, label %5, label %14, !llvm.loop !13

14:                                               ; preds = %5, %0
  %15 = phi i32 [ %3, %0 ], [ %12, %5 ]
  tail call void @_Z1fPii(i32* getelementptr inbounds ([1000 x i32], [1000 x i32]* @a, i64 0, i64 0), i32 %15)
  store i32 0, i32* @i, align 4, !tbaa !5
  %16 = load i32, i32* @n, align 4, !tbaa !5
  %17 = icmp sgt i32 %16, 0
  br i1 %17, label %18, label %27

18:                                               ; preds = %14, %18
  %19 = phi i32 [ %24, %18 ], [ 0, %14 ]
  %20 = sext i32 %19 to i64
  %21 = getelementptr inbounds [1000 x i32], [1000 x i32]* @b, i64 0, i64 %20
  %22 = tail call nonnull align 8 dereferenceable(16) %"class.std::basic_istream"* @_ZNSirsERi(%"class.std::basic_istream"* nonnull align 8 dereferenceable(16) @_ZSt3cin, i32* nonnull align 4 dereferenceable(4) %21)
  %23 = load i32, i32* @i, align 4, !tbaa !5
  %24 = add nsw i32 %23, 1
  store i32 %24, i32* @i, align 4, !tbaa !5
  %25 = load i32, i32* @n, align 4, !tbaa !5
  %26 = icmp slt i32 %24, %25
  br i1 %26, label %18, label %27, !llvm.loop !14

27:                                               ; preds = %18, %14
  %28 = tail call nonnull align 8 dereferenceable(8) %"class.std::basic_ostream"* @_ZSt16__ostream_insertIcSt11char_traitsIcEERSt13basic_ostreamIT_T0_ES6_PKS3_l(%"class.std::basic_ostream"* nonnull align 8 dereferenceable(8) @_ZSt4cout, i8* nonnull getelementptr inbounds ([2 x i8], [2 x i8]* @.str, i64 0, i64 0), i64 1)
  %29 = load i32, i32* @n, align 4, !tbaa !5
  tail call void @_Z1fPii(i32* getelementptr inbounds ([1000 x i32], [1000 x i32]* @b, i64 0, i64 0), i32 %29)
  ret i32 0
}

declare nonnull align 8 dereferenceable(16) %"class.std::basic_istream"* @_ZNSirsERi(%"class.std::basic_istream"* nonnull align 8 dereferenceable(16), i32* nonnull align 4 dereferenceable(4)) local_unnamed_addr #0

declare nonnull align 8 dereferenceable(8) %"class.std::basic_ostream"* @_ZSt16__ostream_insertIcSt11char_traitsIcEERSt13basic_ostreamIT_T0_ES6_PKS3_l(%"class.std::basic_ostream"* nonnull align 8 dereferenceable(8), i8*, i64) local_unnamed_addr #0

; Function Attrs: sspstrong uwtable
define internal void @_GLOBAL__sub_I_895.cpp() #5 section ".text.startup" {
  tail call void @_ZNSt8ios_base4InitC1Ev(%"class.std::ios_base::Init"* nonnull align 1 dereferenceable(1) @_ZStL8__ioinit)
  %1 = tail call i32 @__cxa_atexit(void (i8*)* bitcast (void (%"class.std::ios_base::Init"*)* @_ZNSt8ios_base4InitD1Ev to void (i8*)*), i8* getelementptr inbounds (%"class.std::ios_base::Init", %"class.std::ios_base::Init"* @_ZStL8__ioinit, i64 0, i32 0), i8* nonnull @__dso_handle) #6
  ret void
}


!llvm.module.flags = !{!0, !1, !2, !3}
!llvm.ident = !{!4}

!0 = !{i32 1, !"wchar_size", i32 4}
!1 = !{i32 7, !"PIC Level", i32 2}
!2 = !{i32 7, !"PIE Level", i32 2}
!3 = !{i32 7, !"uwtable", i32 1}
!4 = !{!"clang version 13.0.0"}
!5 = !{!6, !6, i64 0}
!6 = !{!"int", !7, i64 0}
!7 = !{!"omnipotent char", !8, i64 0}
!8 = !{!"Simple C++ TBAA"}
!9 = distinct !{!9, !10}
!10 = !{!"llvm.loop.mustprogress"}
!11 = distinct !{!11, !10}
!12 = distinct !{!12, !10}
!13 = distinct !{!13, !10}
!14 = distinct !{!14, !10}
